target datalayout = "e-m:e-p270:32:32-p271:32:32-p272:64:64-i64:64-i128:128-f80:128-n8:16:32:64-S128"
target triple = "x86_64-pc-linux-gnu"

; Function Attrs: mustprogress nounwind uwtable
define noundef i64 @_ZN3gmx10countWordsEPKc(ptr noundef %0) #0 {
  %2 = alloca ptr, align 8
  %3 = alloca i64, align 8
  %4 = alloca i64, align 8
  %5 = alloca i64, align 8
  store ptr %0, ptr %2, align 8
  store i64 0, ptr %3, align 8
  %6 = load ptr, ptr %2, align 8
  %7 = call i64 @strlen(ptr noundef %6) #12
  store i64 %7, ptr %4, align 8
  store i64 0, ptr %5, align 8
  br label %8

8:                                                ; preds = %36, %1
  %9 = load i64, ptr %5, align 8
  %10 = load i64, ptr %4, align 8
  %11 = icmp ult i64 %9, %10
  br i1 %11, label %12, label %39

12:                                               ; preds = %8
  %13 = load ptr, ptr %2, align 8
  %14 = load i64, ptr %5, align 8
  %15 = getelementptr inbounds i8, ptr %13, i64 %14
  %16 = load i8, ptr %15, align 1
  %17 = sext i8 %16 to i32
  %18 = call i32 @isalnum(i32 noundef %17) #12
  %19 = icmp ne i32 %18, 0
  br i1 %19, label %20, label %35

20:                                               ; preds = %12
  %21 = load i64, ptr %3, align 8
  %22 = add i64 %21, 1
  store i64 %22, ptr %3, align 8
  br label %23

23:                                               ; preds = %31, %20
  %24 = load ptr, ptr %2, align 8
  %25 = load i64, ptr %5, align 8
  %26 = getelementptr inbounds i8, ptr %24, i64 %25
  %27 = load i8, ptr %26, align 1
  %28 = sext i8 %27 to i32
  %29 = call i32 @isalnum(i32 noundef %28) #12
  %30 = icmp ne i32 %29, 0
  br i1 %30, label %31, label %34

31:                                               ; preds = %23
  %32 = load i64, ptr %5, align 8
  %33 = add i64 %32, 1
  store i64 %33, ptr %5, align 8
  br label %23, !llvm.loop !5

34:                                               ; preds = %23
  br label %35

35:                                               ; preds = %34, %12
  br label %36

36:                                               ; preds = %35
  %37 = load i64, ptr %5, align 8
  %38 = add i64 %37, 1
  store i64 %38, ptr %5, align 8
  br label %8, !llvm.loop !7

39:                                               ; preds = %8
  %40 = load i64, ptr %3, align 8
  ret i64 %40
}

; Function Attrs: mustprogress nounwind uwtable
define noundef i64 @_ZN3gmx10countWordsERKNSt7__cxx1112basic_stringIcSt11char_traitsIcESaIcEEE(ptr noundef nonnull align 8 dereferenceable(32) %0) #0 {
  %2 = alloca ptr, align 8
  store ptr %0, ptr %2, align 8
  %3 = load ptr, ptr %2, align 8
  %4 = call noundef ptr @_ZNKSt7__cxx1112basic_stringIcSt11char_traitsIcESaIcEE5c_strEv(ptr noundef nonnull align 8 dereferenceable(32) %3) #13
  %5 = call noundef i64 @_ZN3gmx10countWordsEPKc(ptr noundef %4)
  ret i64 %5
}