; Function Attrs: mustprogress nounwind uwtable
define noundef i64 @_ZN3gmx10countWordsERKNSt7__cxx1112basic_stringIcSt11char_traitsIcESaIcEEE(ptr noundef nonnull align 8 dereferenceable(32) %0) local_unnamed_addr #3 {
  %2 = tail call noundef ptr @_ZNKSt7__cxx1112basic_stringIcSt11char_traitsIcESaIcEE5c_strEv(ptr noundef nonnull align 8 dereferenceable(32) %0) #22
  %3 = tail call i64 @strlen(ptr noundef nonnull dereferenceable(1) %2) #21
  %.not15.i = icmp eq i64 %3, 0
  br i1 %.not15.i, label %_ZN3gmx10countWordsEPKc.exit, label %.lr.ph.i

.lr.ph.i:                                         ; preds = %1, %.loopexit.i
  %.014.i = phi i64 [ %.pre-phi.i, %.loopexit.i ], [ 0, %1 ]
  %.01013.i = phi i64 [ %.111.i, %.loopexit.i ], [ 0, %1 ]
  %4 = getelementptr inbounds i8, ptr %2, i64 %.014.i
  %5 = load i8, ptr %4, align 1
  %6 = sext i8 %5 to i32
  %7 = tail call i32 @isalnum(i32 noundef %6) #21
  %.not.i = icmp eq i32 %7, 0
  br i1 %.not.i, label %.lr.ph..loopexit_crit_edge.i, label %.preheader

.lr.ph..loopexit_crit_edge.i:                     ; preds = %.lr.ph.i
  %.pre.i = add nuw i64 %.014.i, 1
  br label %.loopexit.i

.preheader:                                       ; preds = %.lr.ph.i, %.preheader
  %.1.i = phi i64 [ %12, %.preheader ], [ %.014.i, %.lr.ph.i ]
  %8 = getelementptr inbounds i8, ptr %2, i64 %.1.i
  %9 = load i8, ptr %8, align 1
  %10 = sext i8 %9 to i32
  %11 = tail call i32 @isalnum(i32 noundef %10) #21
  %.not12.i = icmp eq i32 %11, 0
  %12 = add i64 %.1.i, 1
  br i1 %.not12.i, label %.loopexit.loopexit.i, label %.preheader, !llvm.loop !5

.loopexit.loopexit.i:                             ; preds = %.preheader
  %13 = add i64 %.01013.i, 1
  br label %.loopexit.i

.loopexit.i:                                      ; preds = %.loopexit.loopexit.i, %.lr.ph..loopexit_crit_edge.i
  %.pre-phi.i = phi i64 [ %.pre.i, %.lr.ph..loopexit_crit_edge.i ], [ %12, %.loopexit.loopexit.i ]
  %.111.i = phi i64 [ %.01013.i, %.lr.ph..loopexit_crit_edge.i ], [ %13, %.loopexit.loopexit.i ]
  %14 = icmp ult i64 %.pre-phi.i, %3
  br i1 %14, label %.lr.ph.i, label %_ZN3gmx10countWordsEPKc.exit, !llvm.loop !7

_ZN3gmx10countWordsEPKc.exit:                     ; preds = %.loopexit.i, %1
  %.010.lcssa.i = phi i64 [ 0, %1 ], [ %.111.i, %.loopexit.i ]
  ret i64 %.010.lcssa.i
}